target datalayout = "e-m:e-p270:32:32-p271:32:32-p272:64:64-i64:64-i128:128-f80:128-n8:16:32:64-S128"
target triple = "x86_64-pc-linux-gnu"

%struct.cli_htu32_element = type { i32, %union.anon }
%union.anon = type { i64 }
%struct.cli_matcher = type { i32, ptr, ptr, ptr, ptr, i32, i32, i32, i32, i32, %struct.cli_hash_patt, %struct.cli_hash_wild, i32, i32, i32, i32, i32, ptr, ptr, ptr, ptr, ptr, ptr, i32, i32, i8, i8, ptr, i16, i8, i32, ptr, i32, i32, i32, ptr, ptr, i32, ptr, i64, i64, ptr }
%struct.cli_hash_patt = type { [3 x %struct.cli_htu32] }
%struct.cli_htu32 = type { ptr, i64, i64, i64 }
%struct.cli_hash_wild = type { [3 x %struct.cli_sz_hash] }
%struct.cli_sz_hash = type { ptr, ptr, i32 }

@hashlen = constant [3 x i32] [i32 16, i32 20, i32 32], align 4

; Function Attrs: nounwind uwtable
define internal i32 @hm_cmp(ptr noundef %0, ptr noundef %1, i32 noundef %2) #0 {
  %4 = alloca i32, align 4
  %5 = alloca ptr, align 8
  %6 = alloca ptr, align 8
  %7 = alloca i32, align 4
  %8 = alloca i32, align 4
  %9 = alloca i32, align 4
  store ptr %0, ptr %5, align 8
  store ptr %1, ptr %6, align 8
  store i32 %2, ptr %7, align 4
  %10 = load ptr, ptr %5, align 8
  %11 = load i32, ptr %10, align 4
  store i32 %11, ptr %8, align 4
  %12 = load ptr, ptr %6, align 8
  %13 = load i32, ptr %12, align 4
  store i32 %13, ptr %9, align 4
  %14 = load i32, ptr %8, align 4
  %15 = load i32, ptr %9, align 4
  %16 = icmp ne i32 %14, %15
  br i1 %16, label %17, label %24

17:                                               ; preds = %3
  %18 = load i32, ptr %8, align 4
  %19 = load i32, ptr %9, align 4
  %20 = icmp ult i32 %18, %19
  %21 = zext i1 %20 to i32
  %22 = mul nsw i32 %21, 2
  %23 = sub nsw i32 %22, 1
  store i32 %23, ptr %4, align 4
  br label %33

24:                                               ; preds = %3
  %25 = load ptr, ptr %5, align 8
  %26 = getelementptr inbounds i8, ptr %25, i64 4
  %27 = load ptr, ptr %6, align 8
  %28 = getelementptr inbounds i8, ptr %27, i64 4
  %29 = load i32, ptr %7, align 4
  %30 = sub i32 %29, 4
  %31 = zext i32 %30 to i64
  %32 = call i32 @memcmp(ptr noundef %26, ptr noundef %28, i64 noundef %31) #4
  store i32 %32, ptr %4, align 4
  br label %33

33:                                               ; preds = %24, %17
  %34 = load i32, ptr %4, align 4
  ret i32 %34
}

; Function Attrs: nounwind uwtable
define internal i32 @hm_scan(ptr noundef %0, ptr noundef %1, ptr noundef %2, i32 noundef %3) #0 {
  %5 = alloca i32, align 4
  %6 = alloca ptr, align 8
  %7 = alloca ptr, align 8
  %8 = alloca ptr, align 8
  %9 = alloca i32, align 4
  %10 = alloca i32, align 4
  %11 = alloca i64, align 8
  %12 = alloca i64, align 8
  %13 = alloca i64, align 8
  %14 = alloca i32, align 4
  store ptr %0, ptr %6, align 8
  store ptr %1, ptr %7, align 8
  store ptr %2, ptr %8, align 8
  store i32 %3, ptr %9, align 4
  %15 = load ptr, ptr %6, align 8
  %16 = icmp ne ptr %15, null
  br i1 %16, label %17, label %25

17:                                               ; preds = %4
  %18 = load ptr, ptr %8, align 8
  %19 = icmp ne ptr %18, null
  br i1 %19, label %20, label %25

20:                                               ; preds = %17
  %21 = load ptr, ptr %8, align 8
  %22 = getelementptr inbounds %struct.cli_sz_hash, ptr %21, i32 0, i32 2
  %23 = load i32, ptr %22, align 8
  %24 = icmp ne i32 %23, 0
  br i1 %24, label %26, label %25

25:                                               ; preds = %20, %17, %4
  store i32 0, ptr %5, align 4
  br label %86

26:                                               ; preds = %20
  %27 = load i32, ptr %9, align 4
  %28 = zext i32 %27 to i64
  %29 = getelementptr inbounds [3 x i32], ptr @hashlen, i64 0, i64 %28
  %30 = load i32, ptr %29, align 4
  store i32 %30, ptr %10, align 4
  store i64 0, ptr %11, align 8
  %31 = load ptr, ptr %8, align 8
  %32 = getelementptr inbounds %struct.cli_sz_hash, ptr %31, i32 0, i32 2
  %33 = load i32, ptr %32, align 8
  %34 = sub i32 %33, 1
  %35 = zext i32 %34 to i64
  store i64 %35, ptr %12, align 8
  br label %36

36:                                               ; preds = %84, %26
  %37 = load i64, ptr %11, align 8
  %38 = load i64, ptr %12, align 8
  %39 = icmp ule i64 %37, %38
  br i1 %39, label %40, label %85

40:                                               ; preds = %36
  %41 = load i64, ptr %11, align 8
  %42 = load i64, ptr %12, align 8
  %43 = add i64 %41, %42
  %44 = udiv i64 %43, 2
  store i64 %44, ptr %13, align 8
  %45 = load ptr, ptr %6, align 8
  %46 = load ptr, ptr %8, align 8
  %47 = getelementptr inbounds %struct.cli_sz_hash, ptr %46, i32 0, i32 0
  %48 = load ptr, ptr %47, align 8
  %49 = load i32, ptr %10, align 4
  %50 = zext i32 %49 to i64
  %51 = load i64, ptr %13, align 8
  %52 = mul i64 %50, %51
  %53 = getelementptr inbounds i8, ptr %48, i64 %52
  %54 = load i32, ptr %10, align 4
  %55 = call i32 @hm_cmp(ptr noundef %45, ptr noundef %53, i32 noundef %54)
  store i32 %55, ptr %14, align 4
  %56 = load i32, ptr %14, align 4
  %57 = icmp slt i32 %56, 0
  br i1 %57, label %58, label %65

58:                                               ; preds = %40
  %59 = load i64, ptr %13, align 8
  %60 = icmp ne i64 %59, 0
  br i1 %60, label %62, label %61

61:                                               ; preds = %58
  br label %85

62:                                               ; preds = %58
  %63 = load i64, ptr %13, align 8
  %64 = sub i64 %63, 1
  store i64 %64, ptr %12, align 8
  br label %84

65:                                               ; preds = %40
  %66 = load i32, ptr %14, align 4
  %67 = icmp sgt i32 %66, 0
  br i1 %67, label %68, label %71

68:                                               ; preds = %65
  %69 = load i64, ptr %13, align 8
  %70 = add i64 %69, 1
  store i64 %70, ptr %11, align 8
  br label %83

71:                                               ; preds = %65
  %72 = load ptr, ptr %7, align 8
  %73 = icmp ne ptr %72, null
  br i1 %73, label %74, label %82

74:                                               ; preds = %71
  %75 = load ptr, ptr %8, align 8
  %76 = getelementptr inbounds %struct.cli_sz_hash, ptr %75, i32 0, i32 1
  %77 = load ptr, ptr %76, align 8
  %78 = load i64, ptr %13, align 8
  %79 = getelementptr inbounds ptr, ptr %77, i64 %78
  %80 = load ptr, ptr %79, align 8
  %81 = load ptr, ptr %7, align 8
  store ptr %80, ptr %81, align 8
  br label %82

82:                                               ; preds = %74, %71
  store i32 1, ptr %5, align 4
  br label %86

83:                                               ; preds = %68
  br label %84

84:                                               ; preds = %83, %62
  br label %36

85:                                               ; preds = %61, %36
  store i32 0, ptr %5, align 4
  br label %86

86:                                               ; preds = %85, %82, %25
  %87 = load i32, ptr %5, align 4
  ret i32 %87
}

; Function Attrs: nounwind uwtable
define i32 @cli_hm_scan(ptr noundef %0, i32 noundef %1, ptr noundef %2, ptr noundef %3, i32 noundef %4) #0 {
  %6 = alloca i32, align 4
  %7 = alloca ptr, align 8
  %8 = alloca i32, align 4
  %9 = alloca ptr, align 8
  %10 = alloca ptr, align 8
  %11 = alloca i32, align 4
  %12 = alloca ptr, align 8
  %13 = alloca ptr, align 8
  store ptr %0, ptr %7, align 8
  store i32 %1, ptr %8, align 4
  store ptr %2, ptr %9, align 8
  store ptr %3, ptr %10, align 8
  store i32 %4, ptr %11, align 4
  %14 = load ptr, ptr %7, align 8
  %15 = icmp ne ptr %14, null
  br i1 %15, label %16, label %35

16:                                               ; preds = %5
  %17 = load i32, ptr %8, align 4
  %18 = icmp ne i32 %17, 0
  br i1 %18, label %19, label %35

19:                                               ; preds = %16
  %20 = load i32, ptr %8, align 4
  %21 = icmp eq i32 %20, -1
  br i1 %21, label %35, label %22

22:                                               ; preds = %19
  %23 = load ptr, ptr %10, align 8
  %24 = icmp ne ptr %23, null
  br i1 %24, label %25, label %35

25:                                               ; preds = %22
  %26 = load ptr, ptr %10, align 8
  %27 = getelementptr inbounds %struct.cli_matcher, ptr %26, i32 0, i32 10
  %28 = getelementptr inbounds %struct.cli_hash_patt, ptr %27, i32 0, i32 0
  %29 = load i32, ptr %11, align 4
  %30 = zext i32 %29 to i64
  %31 = getelementptr inbounds [3 x %struct.cli_htu32], ptr %28, i64 0, i64 %30
  %32 = getelementptr inbounds %struct.cli_htu32, ptr %31, i32 0, i32 1
  %33 = load i64, ptr %32, align 8
  %34 = icmp ne i64 %33, 0
  br i1 %34, label %36, label %35

35:                                               ; preds = %25, %22, %19, %16, %5
  store i32 0, ptr %6, align 4
  br label %57

36:                                               ; preds = %25
  %37 = load ptr, ptr %10, align 8
  %38 = getelementptr inbounds %struct.cli_matcher, ptr %37, i32 0, i32 10
  %39 = getelementptr inbounds %struct.cli_hash_patt, ptr %38, i32 0, i32 0
  %40 = load i32, ptr %11, align 4
  %41 = zext i32 %40 to i64
  %42 = getelementptr inbounds [3 x %struct.cli_htu32], ptr %39, i64 0, i64 %41
  %43 = load i32, ptr %8, align 4
  %44 = call ptr @cli_htu32_find(ptr noundef %42, i32 noundef %43)
  store ptr %44, ptr %12, align 8
  %45 = load ptr, ptr %12, align 8
  %46 = icmp ne ptr %45, null
  br i1 %46, label %48, label %47

47:                                               ; preds = %36
  store i32 0, ptr %6, align 4
  br label %57

48:                                               ; preds = %36
  %49 = load ptr, ptr %12, align 8
  %50 = getelementptr inbounds %struct.cli_htu32_element, ptr %49, i32 0, i32 1
  %51 = load ptr, ptr %50, align 8
  store ptr %51, ptr %13, align 8
  %52 = load ptr, ptr %7, align 8
  %53 = load ptr, ptr %9, align 8
  %54 = load ptr, ptr %13, align 8
  %55 = load i32, ptr %11, align 4
  %56 = call i32 @hm_scan(ptr noundef %52, ptr noundef %53, ptr noundef %54, i32 noundef %55)
  store i32 %56, ptr %6, align 4
  br label %57

57:                                               ; preds = %48, %47, %35
  %58 = load i32, ptr %6, align 4
  ret i32 %58
}