; Function Attrs: nounwind uwtable
define noundef i32 @cli_hm_scan(ptr noundef readonly %0, i32 noundef %1, ptr noundef writeonly %2, ptr noundef %3, i32 noundef %4) local_unnamed_addr #0 {
  %6 = icmp ne ptr %0, null
  %7 = add i32 %1, -1
  %8 = icmp ult i32 %7, -2
  %or.cond3.not25 = and i1 %6, %8
  %9 = icmp ne ptr %3, null
  %or.cond5 = and i1 %or.cond3.not25, %9
  br i1 %or.cond5, label %10, label %hm_scan.exit

10:                                               ; preds = %5
  %11 = getelementptr inbounds i8, ptr %3, i64 64
  %12 = zext i32 %4 to i64
  %13 = getelementptr inbounds [3 x %struct.cli_htu32], ptr %11, i64 0, i64 %12
  %14 = getelementptr inbounds i8, ptr %13, i64 8
  %15 = load i64, ptr %14, align 8
  %.not = icmp eq i64 %15, 0
  br i1 %.not, label %hm_scan.exit, label %16

16:                                               ; preds = %10
  %17 = tail call ptr @cli_htu32_find(ptr noundef nonnull %13, i32 noundef %1) #7
  %.not26 = icmp eq ptr %17, null
  br i1 %.not26, label %hm_scan.exit, label %18

18:                                               ; preds = %16
  %19 = getelementptr inbounds i8, ptr %17, i64 8
  %20 = load ptr, ptr %19, align 8
  %.not27 = icmp eq ptr %20, null
  br i1 %.not27, label %hm_scan.exit, label %21

21:                                               ; preds = %18
  %22 = getelementptr inbounds i8, ptr %20, i64 16
  %23 = load i32, ptr %22, align 8
  %.not.i = icmp eq i32 %23, 0
  br i1 %.not.i, label %hm_scan.exit, label %24

24:                                               ; preds = %21
  %25 = getelementptr inbounds [3 x i32], ptr @hashlen, i64 0, i64 %12
  %26 = load i32, ptr %25, align 4
  %27 = add i32 %23, -1
  %28 = zext i32 %27 to i64
  %29 = load ptr, ptr %20, align 8
  %30 = zext i32 %26 to i64
  %31 = load i32, ptr %0, align 4
  %32 = getelementptr inbounds i8, ptr %0, i64 4
  %33 = add i32 %26, -4
  %34 = zext i32 %33 to i64
  br label %35

35:                                               ; preds = %56, %24
  %.02444.i = phi i64 [ 0, %24 ], [ %.1.i, %56 ]
  %.02543.i = phi i64 [ %28, %24 ], [ %.126.i, %56 ]
  %36 = add nuw nsw i64 %.02543.i, %.02444.i
  %37 = lshr i64 %36, 1
  %38 = mul nuw i64 %37, %30
  %39 = getelementptr inbounds i8, ptr %29, i64 %38
  %40 = load i32, ptr %39, align 4
  %.not.i.i = icmp eq i32 %31, %40
  br i1 %.not.i.i, label %hm_cmp.exit.i, label %41

41:                                               ; preds = %35
  %42 = icmp ult i32 %31, %40
  br i1 %42, label %.thread.i, label %hm_cmp.exit.thread.i

hm_cmp.exit.i:                                    ; preds = %35
  %43 = getelementptr inbounds i8, ptr %39, i64 4
  %44 = tail call i32 @memcmp(ptr noundef nonnull %32, ptr noundef nonnull %43, i64 noundef %34) #8
  %45 = icmp slt i32 %44, 0
  br i1 %45, label %hm_cmp.exit.thread.i, label %48

hm_cmp.exit.thread.i:                             ; preds = %hm_cmp.exit.i, %41
  %.not36.i = icmp ult i64 %36, 2
  br i1 %.not36.i, label %hm_scan.exit, label %46

46:                                               ; preds = %hm_cmp.exit.thread.i
  %47 = add nsw i64 %37, -1
  br label %56

48:                                               ; preds = %hm_cmp.exit.i
  %.not34.i = icmp eq i32 %44, 0
  br i1 %.not34.i, label %50, label %.thread.i

.thread.i:                                        ; preds = %48, %41
  %49 = add nuw nsw i64 %37, 1
  br label %56

50:                                               ; preds = %48
  %.not35.i = icmp eq ptr %2, null
  br i1 %.not35.i, label %hm_scan.exit, label %51

51:                                               ; preds = %50
  %52 = getelementptr inbounds i8, ptr %20, i64 8
  %53 = load ptr, ptr %52, align 8
  %54 = getelementptr inbounds ptr, ptr %53, i64 %37
  %55 = load ptr, ptr %54, align 8
  store ptr %55, ptr %2, align 8
  br label %hm_scan.exit

56:                                               ; preds = %.thread.i, %46
  %.126.i = phi i64 [ %47, %46 ], [ %.02543.i, %.thread.i ]
  %.1.i = phi i64 [ %.02444.i, %46 ], [ %49, %.thread.i ]
  %.not33.i = icmp ugt i64 %.1.i, %.126.i
  br i1 %.not33.i, label %hm_scan.exit, label %35

hm_scan.exit:                                     ; preds = %56, %hm_cmp.exit.thread.i, %51, %50, %21, %18, %16, %5, %10
  %.0 = phi i32 [ 0, %10 ], [ 0, %5 ], [ 0, %16 ], [ 0, %21 ], [ 0, %18 ], [ 1, %51 ], [ 1, %50 ], [ 0, %hm_cmp.exit.thread.i ], [ 0, %56 ]
  ret i32 %.0
}